target datalayout = "e-m:e-p270:32:32-p271:32:32-p272:64:64-i64:64-i128:128-f80:128-n8:16:32:64-S128"
target triple = "x86_64-pc-linux-gnu"

%struct.tvbuff = type { ptr, ptr, i8, i32, ptr, ptr, i32, i32, i32, i32 }
%struct.tvb_subset = type { %struct.tvbuff, %struct.tvb_backing_t }
%struct.tvb_backing_t = type { ptr, i32, i32 }

; Function Attrs: null_pointer_is_valid sspstrong uwtable
define internal i32 @subset_find_uint8(ptr noundef %0, i32 noundef %1, i32 noundef %2, i8 noundef zeroext %3) #0 {
  %5 = alloca i32, align 4
  %6 = alloca ptr, align 8
  %7 = alloca i32, align 4
  %8 = alloca i32, align 4
  %9 = alloca i8, align 1
  %10 = alloca ptr, align 8
  %11 = alloca i32, align 4
  %12 = alloca i32, align 4
  store ptr %0, ptr %6, align 8
  store i32 %1, ptr %7, align 4
  store i32 %2, ptr %8, align 4
  store i8 %3, ptr %9, align 1
  call void @llvm.lifetime.start.p0(i64 8, ptr %10) #4
  %13 = load ptr, ptr %6, align 8
  store ptr %13, ptr %10, align 8
  call void @llvm.lifetime.start.p0(i64 4, ptr %11) #4
  %14 = load ptr, ptr %10, align 8
  %15 = getelementptr inbounds nuw %struct.tvb_subset, ptr %14, i32 0, i32 1
  %16 = getelementptr inbounds nuw %struct.tvb_backing_t, ptr %15, i32 0, i32 0
  %17 = load ptr, ptr %16, align 8
  %18 = load ptr, ptr %10, align 8
  %19 = getelementptr inbounds nuw %struct.tvb_subset, ptr %18, i32 0, i32 1
  %20 = getelementptr inbounds nuw %struct.tvb_backing_t, ptr %19, i32 0, i32 1
  %21 = load i32, ptr %20, align 8
  %22 = load i32, ptr %7, align 4
  %23 = add i32 %21, %22
  %24 = load i32, ptr %8, align 4
  %25 = load i8, ptr %9, align 1
  %26 = call i32 @tvb_find_uint8(ptr noundef %17, i32 noundef %23, i32 noundef %24, i8 noundef zeroext %25)
  store i32 %26, ptr %11, align 4
  %27 = load i32, ptr %11, align 4
  %28 = icmp eq i32 %27, -1
  br i1 %28, label %29, label %31

29:                                               ; preds = %4
  %30 = load i32, ptr %11, align 4
  store i32 %30, ptr %5, align 4
  store i32 1, ptr %12, align 4
  br label %38

31:                                               ; preds = %4
  %32 = load i32, ptr %11, align 4
  %33 = load ptr, ptr %10, align 8
  %34 = getelementptr inbounds nuw %struct.tvb_subset, ptr %33, i32 0, i32 1
  %35 = getelementptr inbounds nuw %struct.tvb_backing_t, ptr %34, i32 0, i32 1
  %36 = load i32, ptr %35, align 8
  %37 = sub i32 %32, %36
  store i32 %37, ptr %5, align 4
  store i32 1, ptr %12, align 4
  br label %38

38:                                               ; preds = %31, %29
  call void @llvm.lifetime.end.p0(i64 4, ptr %11) #4
  call void @llvm.lifetime.end.p0(i64 8, ptr %10) #4
  %39 = load i32, ptr %5, align 4
  ret i32 %39
}