; Function Attrs: null_pointer_is_valid sspstrong uwtable
define internal i32 @subset_find_uint8(ptr noundef readonly captures(none) %0, i32 noundef %1, i32 noundef %2, i8 noundef zeroext %3) #0 {
  %5 = getelementptr inbounds nuw i8, ptr %0, i64 56
  %6 = load ptr, ptr %5, align 8
  %7 = getelementptr inbounds nuw i8, ptr %0, i64 64
  %8 = load i32, ptr %7, align 8
  %9 = add i32 %8, %1
  %10 = tail call i32 @tvb_find_uint8(ptr noundef %6, i32 noundef %9, i32 noundef %2, i8 noundef zeroext %3)
  %11 = icmp eq i32 %10, -1
  br i1 %11, label %15, label %12

12:                                               ; preds = %4
  %13 = load i32, ptr %7, align 8
  %14 = sub i32 %10, %13
  br label %15

15:                                               ; preds = %4, %12
  %.0 = phi i32 [ %14, %12 ], [ -1, %4 ]
  ret i32 %.0
}